; Function Attrs: mustprogress nofree norecurse nosync nounwind willreturn memory(argmem: read) uwtable
define dso_local noundef range(i32 0, 5) i32 @_ZNK5clang13LambdaCapture14getCaptureKindEv(ptr noundef nonnull readonly align 8 captures(none) dereferenceable(16) %0) local_unnamed_addr #0 align 2 {
  %.0.copyload.i.i.i.i = load i64, ptr %0, align 8
  %2 = icmp ult i64 %.0.copyload.i.i.i.i, 4
  br i1 %2, label %11, label %3

3:                                                ; preds = %1
  %4 = trunc i64 %.0.copyload.i.i.i.i to i32
  %5 = and i32 %4, 2
  %6 = and i64 %.0.copyload.i.i.i.i, -4
  %7 = icmp eq i64 %6, 4
  br i1 %7, label %8, label %9

8:                                                ; preds = %3
  %.lobit = lshr exact i32 %5, 1
  br label %11

9:                                                ; preds = %3
  %.not.not = icmp eq i32 %5, 0
  %10 = select i1 %.not.not, i32 3, i32 2
  br label %11

11:                                               ; preds = %1, %9, %8
  %.0 = phi i32 [ %.lobit, %8 ], [ %10, %9 ], [ 4, %1 ]
  ret i32 %.0
}